target datalayout = "e-m:e-p270:32:32-p271:32:32-p272:64:64-i64:64-i128:128-f80:128-n8:16:32:64-S128"
target triple = "x86_64-pc-linux-gnu"

%struct.SDL_Hint = type { ptr, i32, ptr }
%struct.SDL_HintWatch = type { ptr, ptr, ptr }

@.str.6 = private unnamed_addr constant [17 x i8] c"SDL_VIDEO_DRIVER\00", align 1
@.str.7 = private unnamed_addr constant [16 x i8] c"SDL_VIDEODRIVER\00", align 1
@.str.8 = private unnamed_addr constant [17 x i8] c"SDL_AUDIO_DRIVER\00", align 1
@.str.9 = private unnamed_addr constant [16 x i8] c"SDL_AUDIODRIVER\00", align 1

; Function Attrs: nounwind uwtable
define internal ptr @GetHintEnvironmentVariable(ptr noundef %0) #0 {
  %2 = alloca ptr, align 8
  %3 = alloca ptr, align 8
  store ptr %0, ptr %2, align 8
  call void @llvm.lifetime.start.p0(i64 8, ptr %3) #3
  %4 = load ptr, ptr %2, align 8
  %5 = call ptr @SDL_getenv_REAL(ptr noundef %4)
  store ptr %5, ptr %3, align 8
  %6 = load ptr, ptr %3, align 8
  %7 = icmp ne ptr %6, null
  br i1 %7, label %30, label %8

8:                                                ; preds = %1
  %9 = load ptr, ptr %2, align 8
  %10 = icmp ne ptr %9, null
  br i1 %10, label %11, label %30

11:                                               ; preds = %8
  %12 = load ptr, ptr %2, align 8
  %13 = load i8, ptr %12, align 1
  %14 = sext i8 %13 to i32
  %15 = icmp ne i32 %14, 0
  br i1 %15, label %16, label %30

16:                                               ; preds = %11
  %17 = load ptr, ptr %2, align 8
  %18 = call i32 @SDL_strcmp_REAL(ptr noundef %17, ptr noundef @.str.6)
  %19 = icmp eq i32 %18, 0
  br i1 %19, label %20, label %22

20:                                               ; preds = %16
  %21 = call ptr @SDL_getenv_REAL(ptr noundef @.str.7)
  store ptr %21, ptr %3, align 8
  br label %29

22:                                               ; preds = %16
  %23 = load ptr, ptr %2, align 8
  %24 = call i32 @SDL_strcmp_REAL(ptr noundef %23, ptr noundef @.str.8)
  %25 = icmp eq i32 %24, 0
  br i1 %25, label %26, label %28

26:                                               ; preds = %22
  %27 = call ptr @SDL_getenv_REAL(ptr noundef @.str.9)
  store ptr %27, ptr %3, align 8
  br label %28

28:                                               ; preds = %26, %22
  br label %29

29:                                               ; preds = %28, %20
  br label %30

30:                                               ; preds = %29, %11, %8, %1
  %31 = load ptr, ptr %3, align 8
  call void @llvm.lifetime.end.p0(i64 8, ptr %3) #3
  ret ptr %31
}

; Function Attrs: nounwind uwtable
define internal void @ResetHintsCallback(ptr noundef %0, i32 noundef %1, ptr noundef %2) #0 {
  %4 = alloca ptr, align 8
  %5 = alloca i32, align 4
  %6 = alloca ptr, align 8
  %7 = alloca ptr, align 8
  %8 = alloca i32, align 4
  %9 = alloca ptr, align 8
  %10 = alloca ptr, align 8
  %11 = alloca ptr, align 8
  store ptr %0, ptr %4, align 8
  store i32 %1, ptr %5, align 4
  store ptr %2, ptr %6, align 8
  call void @llvm.lifetime.start.p0(i64 8, ptr %7) #3
  %12 = load i32, ptr %5, align 4
  %13 = load ptr, ptr %6, align 8
  %14 = call ptr @SDL_GetPointerProperty_REAL(i32 noundef %12, ptr noundef %13, ptr noundef null)
  store ptr %14, ptr %7, align 8
  %15 = load ptr, ptr %7, align 8
  %16 = icmp ne ptr %15, null
  br i1 %16, label %18, label %17

17:                                               ; preds = %3
  store i32 1, ptr %8, align 4
  br label %78

18:                                               ; preds = %3
  call void @llvm.lifetime.start.p0(i64 8, ptr %9) #3
  %19 = load ptr, ptr %6, align 8
  %20 = call ptr @GetHintEnvironmentVariable(ptr noundef %19)
  store ptr %20, ptr %9, align 8
  %21 = load ptr, ptr %9, align 8
  %22 = icmp ne ptr %21, null
  br i1 %22, label %28, label %23

23:                                               ; preds = %18
  %24 = load ptr, ptr %7, align 8
  %25 = getelementptr inbounds nuw %struct.SDL_Hint, ptr %24, i32 0, i32 0
  %26 = load ptr, ptr %25, align 8
  %27 = icmp ne ptr %26, null
  br i1 %27, label %46, label %28

28:                                               ; preds = %23, %18
  %29 = load ptr, ptr %9, align 8
  %30 = icmp ne ptr %29, null
  br i1 %30, label %31, label %36

31:                                               ; preds = %28
  %32 = load ptr, ptr %7, align 8
  %33 = getelementptr inbounds nuw %struct.SDL_Hint, ptr %32, i32 0, i32 0
  %34 = load ptr, ptr %33, align 8
  %35 = icmp ne ptr %34, null
  br i1 %35, label %36, label %46

36:                                               ; preds = %31, %28
  %37 = load ptr, ptr %9, align 8
  %38 = icmp ne ptr %37, null
  br i1 %38, label %39, label %70

39:                                               ; preds = %36
  %40 = load ptr, ptr %9, align 8
  %41 = load ptr, ptr %7, align 8
  %42 = getelementptr inbounds nuw %struct.SDL_Hint, ptr %41, i32 0, i32 0
  %43 = load ptr, ptr %42, align 8
  %44 = call i32 @SDL_strcmp_REAL(ptr noundef %40, ptr noundef %43)
  %45 = icmp ne i32 %44, 0
  br i1 %45, label %46, label %70

46:                                               ; preds = %39, %31, %23
  call void @llvm.lifetime.start.p0(i64 8, ptr %10) #3
  %47 = load ptr, ptr %7, align 8
  %48 = getelementptr inbounds nuw %struct.SDL_Hint, ptr %47, i32 0, i32 2
  %49 = load ptr, ptr %48, align 8
  store ptr %49, ptr %10, align 8
  br label %50

50:                                               ; preds = %53, %46
  %51 = load ptr, ptr %10, align 8
  %52 = icmp ne ptr %51, null
  br i1 %52, label %53, label %69

53:                                               ; preds = %50
  call void @llvm.lifetime.start.p0(i64 8, ptr %11) #3
  %54 = load ptr, ptr %10, align 8
  %55 = getelementptr inbounds nuw %struct.SDL_HintWatch, ptr %54, i32 0, i32 2
  %56 = load ptr, ptr %55, align 8
  store ptr %56, ptr %11, align 8
  %57 = load ptr, ptr %10, align 8
  %58 = getelementptr inbounds nuw %struct.SDL_HintWatch, ptr %57, i32 0, i32 0
  %59 = load ptr, ptr %58, align 8
  %60 = load ptr, ptr %10, align 8
  %61 = getelementptr inbounds nuw %struct.SDL_HintWatch, ptr %60, i32 0, i32 1
  %62 = load ptr, ptr %61, align 8
  %63 = load ptr, ptr %6, align 8
  %64 = load ptr, ptr %7, align 8
  %65 = getelementptr inbounds nuw %struct.SDL_Hint, ptr %64, i32 0, i32 0
  %66 = load ptr, ptr %65, align 8
  %67 = load ptr, ptr %9, align 8
  call void %59(ptr noundef %62, ptr noundef %63, ptr noundef %66, ptr noundef %67)
  %68 = load ptr, ptr %11, align 8
  store ptr %68, ptr %10, align 8
  call void @llvm.lifetime.end.p0(i64 8, ptr %11) #3
  br label %50, !llvm.loop !10

69:                                               ; preds = %50
  call void @llvm.lifetime.end.p0(i64 8, ptr %10) #3
  br label %70

70:                                               ; preds = %69, %39, %36
  %71 = load ptr, ptr %7, align 8
  %72 = getelementptr inbounds nuw %struct.SDL_Hint, ptr %71, i32 0, i32 0
  %73 = load ptr, ptr %72, align 8
  call void @SDL_free_REAL(ptr noundef %73)
  %74 = load ptr, ptr %7, align 8
  %75 = getelementptr inbounds nuw %struct.SDL_Hint, ptr %74, i32 0, i32 0
  store ptr null, ptr %75, align 8
  %76 = load ptr, ptr %7, align 8
  %77 = getelementptr inbounds nuw %struct.SDL_Hint, ptr %76, i32 0, i32 1
  store i32 0, ptr %77, align 8
  call void @llvm.lifetime.end.p0(i64 8, ptr %9) #3
  store i32 0, ptr %8, align 4
  br label %78

78:                                               ; preds = %70, %17
  call void @llvm.lifetime.end.p0(i64 8, ptr %7) #3
  %79 = load i32, ptr %8, align 4
  switch i32 %79, label %81 [
    i32 0, label %80
    i32 1, label %80
  ]

80:                                               ; preds = %78, %78
  ret void

81:                                               ; preds = %78
  unreachable
}