; Function Attrs: nounwind uwtable
define internal void @ResetHintsCallback(ptr readnone captures(none) %0, i32 noundef %1, ptr noundef %2) #1 {
  %4 = tail call ptr @SDL_GetPointerProperty_REAL(i32 noundef %1, ptr noundef %2, ptr noundef null) #3
  %.not = icmp eq ptr %4, null
  br i1 %.not, label %33, label %5

5:                                                ; preds = %3
  %6 = tail call ptr @SDL_getenv_REAL(ptr noundef %2) #3
  %7 = icmp eq ptr %6, null
  %8 = icmp ne ptr %2, null
  %or.cond.i = and i1 %8, %7
  br i1 %or.cond.i, label %9, label %GetHintEnvironmentVariable.exit

9:                                                ; preds = %5
  %10 = load i8, ptr %2, align 1
  %.not.i = icmp eq i8 %10, 0
  br i1 %.not.i, label %GetHintEnvironmentVariable.exit.thread, label %11

11:                                               ; preds = %9
  %12 = tail call i32 @SDL_strcmp_REAL(ptr noundef nonnull %2, ptr noundef nonnull @.str.6) #3
  %13 = icmp eq i32 %12, 0
  br i1 %13, label %.sink.split.i, label %14

14:                                               ; preds = %11
  %15 = tail call i32 @SDL_strcmp_REAL(ptr noundef nonnull %2, ptr noundef nonnull @.str.8) #3
  %16 = icmp eq i32 %15, 0
  br i1 %16, label %.sink.split.i, label %GetHintEnvironmentVariable.exit.thread

.sink.split.i:                                    ; preds = %14, %11
  %.str.7.sink.i = phi ptr [ @.str.7, %11 ], [ @.str.9, %14 ]
  %17 = tail call ptr @SDL_getenv_REAL(ptr noundef nonnull %.str.7.sink.i) #3
  br label %GetHintEnvironmentVariable.exit

GetHintEnvironmentVariable.exit:                  ; preds = %5, %.sink.split.i
  %.0.i = phi ptr [ %6, %5 ], [ %17, %.sink.split.i ]
  %.not24 = icmp eq ptr %.0.i, null
  br i1 %.not24, label %GetHintEnvironmentVariable.exit.thread, label %.critedge

GetHintEnvironmentVariable.exit.thread:           ; preds = %9, %14, %GetHintEnvironmentVariable.exit
  %18 = load ptr, ptr %4, align 8
  %.not25 = icmp eq ptr %18, null
  br i1 %.not25, label %.critedge30, label %22

.critedge:                                        ; preds = %GetHintEnvironmentVariable.exit
  %19 = load ptr, ptr %4, align 8
  %.not26 = icmp eq ptr %19, null
  br i1 %.not26, label %22, label %20

20:                                               ; preds = %.critedge
  %21 = tail call i32 @SDL_strcmp_REAL(ptr noundef nonnull %.0.i, ptr noundef nonnull %19) #3
  %.not27 = icmp eq i32 %21, 0
  br i1 %.not27, label %.critedge30, label %22

22:                                               ; preds = %20, %.critedge, %GetHintEnvironmentVariable.exit.thread
  %.0.i35 = phi ptr [ %.0.i, %20 ], [ %.0.i, %.critedge ], [ null, %GetHintEnvironmentVariable.exit.thread ]
  %23 = getelementptr inbounds nuw i8, ptr %4, i64 16
  %24 = load ptr, ptr %23, align 8
  %.not2838 = icmp eq ptr %24, null
  br i1 %.not2838, label %.critedge30, label %.lr.ph

.lr.ph:                                           ; preds = %22, %.lr.ph
  %.039 = phi ptr [ %26, %.lr.ph ], [ %24, %22 ]
  %25 = getelementptr inbounds nuw i8, ptr %.039, i64 16
  %26 = load ptr, ptr %25, align 8
  %27 = load ptr, ptr %.039, align 8
  %28 = getelementptr inbounds nuw i8, ptr %.039, i64 8
  %29 = load ptr, ptr %28, align 8
  %30 = load ptr, ptr %4, align 8
  tail call void %27(ptr noundef %29, ptr noundef %2, ptr noundef %30, ptr noundef %.0.i35) #3
  %.not28 = icmp eq ptr %26, null
  br i1 %.not28, label %.critedge30, label %.lr.ph, !llvm.loop !8

.critedge30:                                      ; preds = %.lr.ph, %22, %GetHintEnvironmentVariable.exit.thread, %20
  %31 = load ptr, ptr %4, align 8
  tail call void @SDL_free_REAL(ptr noundef %31) #3
  store ptr null, ptr %4, align 8
  %32 = getelementptr inbounds nuw i8, ptr %4, i64 8
  store i32 0, ptr %32, align 8
  br label %33

33:                                               ; preds = %3, %.critedge30
  ret void
}